; Function Attrs: mustprogress nounwind uwtable
define void @_ZN6casadi16CallbackInternalD2Ev(ptr noundef nonnull align 8 dereferenceable(1369) initializes((0, 8)) %0) unnamed_addr #4 align 2 personality ptr @__gxx_personality_v0 {
  store ptr getelementptr inbounds nuw inrange(-16, 928) (i8, ptr @_ZTVN6casadi16CallbackInternalE, i64 16), ptr %0, align 8, !tbaa !3
  invoke void @_ZN6casadi13ProtoFunction9clear_memEv(ptr noundef nonnull align 8 dereferenceable(168) %0)
          to label %2 unwind label %19

2:                                                ; preds = %1
  %3 = getelementptr inbounds nuw i8, ptr %0, i64 1344
  %4 = load ptr, ptr %3, align 8, !tbaa !80
  %.not.i.i.i = icmp eq ptr %4, null
  br i1 %.not.i.i.i, label %_ZNSt6vectorIxSaIxEED2Ev.exit, label %5

5:                                                ; preds = %2
  %6 = getelementptr inbounds nuw i8, ptr %0, i64 1360
  %7 = load ptr, ptr %6, align 8, !tbaa !81
  %8 = ptrtoint ptr %7 to i64
  %9 = ptrtoint ptr %4 to i64
  %10 = sub i64 %8, %9
  tail call void @_ZdlPvm(ptr noundef nonnull %4, i64 noundef %10) #20
  br label %_ZNSt6vectorIxSaIxEED2Ev.exit

_ZNSt6vectorIxSaIxEED2Ev.exit:                    ; preds = %2, %5
  %11 = getelementptr inbounds nuw i8, ptr %0, i64 1320
  %12 = load ptr, ptr %11, align 8, !tbaa !80
  %.not.i.i.i1 = icmp eq ptr %12, null
  br i1 %.not.i.i.i1, label %_ZNSt6vectorIxSaIxEED2Ev.exit2, label %13

13:                                               ; preds = %_ZNSt6vectorIxSaIxEED2Ev.exit
  %14 = getelementptr inbounds nuw i8, ptr %0, i64 1336
  %15 = load ptr, ptr %14, align 8, !tbaa !81
  %16 = ptrtoint ptr %15 to i64
  %17 = ptrtoint ptr %12 to i64
  %18 = sub i64 %16, %17
  tail call void @_ZdlPvm(ptr noundef nonnull %12, i64 noundef %18) #20
  br label %_ZNSt6vectorIxSaIxEED2Ev.exit2

_ZNSt6vectorIxSaIxEED2Ev.exit2:                   ; preds = %_ZNSt6vectorIxSaIxEED2Ev.exit, %13
  tail call void @_ZN6casadi16FunctionInternalD2Ev(ptr noundef nonnull align 8 dereferenceable(1312) %0) #21
  ret void

19:                                               ; preds = %1
  %20 = landingpad { ptr, i32 }
          catch ptr null
  %21 = extractvalue { ptr, i32 } %20, 0
  tail call void @__clang_call_terminate(ptr %21) #22
  unreachable
}